target datalayout = "e-m:e-p270:32:32-p271:32:32-p272:64:64-i64:64-i128:128-f80:128-n8:16:32:64-S128"
target triple = "x86_64-unknown-linux-gnu"

@.str = private unnamed_addr constant [9 x i8] c"INACTIVE\00", align 1
@.str.1 = private unnamed_addr constant [12 x i8] c"NO_DECISION\00", align 1
@.str.2 = private unnamed_addr constant [9 x i8] c"DECISION\00", align 1
@.str.3 = private unnamed_addr constant [10 x i8] c"BACKTRACK\00", align 1
@.str.4 = private unnamed_addr constant [2 x i8] c"?\00", align 1

; Function Attrs: mustprogress nounwind uwtable
define hidden noundef ptr @_ZN4cvc58internal8decision8toStringENS1_14DecisionStatusE(i32 noundef %s) #4 {
entry:
  %retval = alloca ptr, align 8
  %s.addr = alloca i32, align 4
  store i32 %s, ptr %s.addr, align 4
  %0 = load i32, ptr %s.addr, align 4
  switch i32 %0, label %sw.default [
    i32 0, label %sw.bb
    i32 1, label %sw.bb1
    i32 2, label %sw.bb2
    i32 3, label %sw.bb3
  ]

sw.bb:                                            ; preds = %entry
  store ptr @.str, ptr %retval, align 8
  br label %return

sw.bb1:                                           ; preds = %entry
  store ptr @.str.1, ptr %retval, align 8
  br label %return

sw.bb2:                                           ; preds = %entry
  store ptr @.str.2, ptr %retval, align 8
  br label %return

sw.bb3:                                           ; preds = %entry
  store ptr @.str.3, ptr %retval, align 8
  br label %return

sw.default:                                       ; preds = %entry
  store ptr @.str.4, ptr %retval, align 8
  br label %return

return:                                           ; preds = %sw.default, %sw.bb3, %sw.bb2, %sw.bb1, %sw.bb
  %1 = load ptr, ptr %retval, align 8
  ret ptr %1
}